target datalayout = "e-m:e-p270:32:32-p271:32:32-p272:64:64-i64:64-i128:128-f80:128-n8:16:32:64-S128"
target triple = "x86_64-pc-linux-gnu"

%"class.cv::UMat" = type { i32, i32, i32, i32, ptr, i32, ptr, i64, %"struct.cv::MatSize", %"struct.cv::MatStep" }
%"struct.cv::MatSize" = type { ptr }
%"struct.cv::MatStep" = type { ptr, [2 x i64] }

; Function Attrs: mustprogress nounwind uwtable
define void @_ZNK2cv4UMat8ndoffsetEPm(ptr noundef nonnull align 8 dereferenceable(80) %0, ptr noundef %1) #0 align 2 {
  %3 = alloca ptr, align 8
  %4 = alloca ptr, align 8
  %5 = alloca i64, align 8
  %6 = alloca i32, align 4
  %7 = alloca i64, align 8
  store ptr %0, ptr %3, align 8, !tbaa !65
  store ptr %1, ptr %4, align 8, !tbaa !109
  %8 = load ptr, ptr %3, align 8
  call void @llvm.lifetime.start.p0(i64 8, ptr %5) #16
  %9 = getelementptr inbounds nuw %"class.cv::UMat", ptr %8, i32 0, i32 7
  %10 = load i64, ptr %9, align 8, !tbaa !81
  store i64 %10, ptr %5, align 8, !tbaa !50
  call void @llvm.lifetime.start.p0(i64 4, ptr %6) #16
  store i32 0, ptr %6, align 4, !tbaa !37
  br label %11

11:                                               ; preds = %41, %2
  %12 = load i32, ptr %6, align 4, !tbaa !37
  %13 = getelementptr inbounds nuw %"class.cv::UMat", ptr %8, i32 0, i32 1
  %14 = load i32, ptr %13, align 4, !tbaa !75
  %15 = icmp slt i32 %12, %14
  br i1 %15, label %17, label %16

16:                                               ; preds = %11
  call void @llvm.lifetime.end.p0(i64 4, ptr %6) #16
  br label %44

17:                                               ; preds = %11
  call void @llvm.lifetime.start.p0(i64 8, ptr %7) #16
  %18 = getelementptr inbounds nuw %"class.cv::UMat", ptr %8, i32 0, i32 9
  %19 = getelementptr inbounds nuw %"struct.cv::MatStep", ptr %18, i32 0, i32 0
  %20 = load ptr, ptr %19, align 8, !tbaa !98
  %21 = load i32, ptr %6, align 4, !tbaa !37
  %22 = sext i32 %21 to i64
  %23 = getelementptr inbounds i64, ptr %20, i64 %22
  %24 = load i64, ptr %23, align 8, !tbaa !50
  store i64 %24, ptr %7, align 8, !tbaa !50
  %25 = load i64, ptr %5, align 8, !tbaa !50
  %26 = load i64, ptr %7, align 8, !tbaa !50
  %27 = udiv i64 %25, %26
  %28 = load ptr, ptr %4, align 8, !tbaa !109
  %29 = load i32, ptr %6, align 4, !tbaa !37
  %30 = sext i32 %29 to i64
  %31 = getelementptr inbounds i64, ptr %28, i64 %30
  store i64 %27, ptr %31, align 8, !tbaa !50
  %32 = load ptr, ptr %4, align 8, !tbaa !109
  %33 = load i32, ptr %6, align 4, !tbaa !37
  %34 = sext i32 %33 to i64
  %35 = getelementptr inbounds i64, ptr %32, i64 %34
  %36 = load i64, ptr %35, align 8, !tbaa !50
  %37 = load i64, ptr %7, align 8, !tbaa !50
  %38 = mul i64 %36, %37
  %39 = load i64, ptr %5, align 8, !tbaa !50
  %40 = sub i64 %39, %38
  store i64 %40, ptr %5, align 8, !tbaa !50
  call void @llvm.lifetime.end.p0(i64 8, ptr %7) #16
  br label %41

41:                                               ; preds = %17
  %42 = load i32, ptr %6, align 4, !tbaa !37
  %43 = add nsw i32 %42, 1
  store i32 %43, ptr %6, align 4, !tbaa !37
  br label %11, !llvm.loop !184

44:                                               ; preds = %16
  call void @llvm.lifetime.end.p0(i64 8, ptr %5) #16
  ret void
}