; Function Attrs: mustprogress nofree norecurse nosync nounwind memory(read, argmem: readwrite, inaccessiblemem: none) uwtable
define void @_ZNK2cv4UMat8ndoffsetEPm(ptr noundef nonnull readonly align 8 captures(none) dereferenceable(80) %0, ptr noundef writeonly captures(none) %1) local_unnamed_addr #16 align 2 {
  %3 = getelementptr inbounds nuw i8, ptr %0, i64 4
  %4 = load i32, ptr %3, align 4, !tbaa !58
  %5 = icmp sgt i32 %4, 0
  br i1 %5, label %.lr.ph, label %._crit_edge

.lr.ph:                                           ; preds = %2
  %6 = getelementptr inbounds nuw i8, ptr %0, i64 40
  %7 = load i64, ptr %6, align 8, !tbaa !63
  %8 = getelementptr inbounds nuw i8, ptr %0, i64 56
  %9 = load ptr, ptr %8, align 8, !tbaa !67
  %wide.trip.count = zext nneg i32 %4 to i64
  br label %10

._crit_edge:                                      ; preds = %10, %2
  ret void

10:                                               ; preds = %.lr.ph, %10
  %indvars.iv = phi i64 [ 0, %.lr.ph ], [ %indvars.iv.next, %10 ]
  %.013 = phi i64 [ %7, %.lr.ph ], [ %.recomposed, %10 ]
  %11 = getelementptr inbounds nuw i64, ptr %9, i64 %indvars.iv
  %12 = load i64, ptr %11, align 8, !tbaa !69
  %13 = udiv i64 %.013, %12
  %14 = getelementptr inbounds nuw i64, ptr %1, i64 %indvars.iv
  store i64 %13, ptr %14, align 8, !tbaa !69
  %15 = mul i64 %13, %12
  %.recomposed = urem i64 %.013, %12
  %indvars.iv.next = add nuw nsw i64 %indvars.iv, 1
  %exitcond.not = icmp eq i64 %indvars.iv.next, %wide.trip.count
  br i1 %exitcond.not, label %._crit_edge, label %10, !llvm.loop !72
}